target datalayout = "e-m:e-p270:32:32-p271:32:32-p272:64:64-i64:64-i128:128-f80:128-n8:16:32:64-S128"
target triple = "x86_64-pc-linux-gnu"

%struct.Vec_Mem_t_ = type { i32, i32, i32, i32, i32, i32, ptr, ptr, ptr }
%struct.Vec_Int_t_ = type { i32, i32, ptr }
%struct.Mf_Man_t_ = type { ptr, ptr, ptr, ptr, %struct.Vec_Ptr_t_, ptr, %struct.Vec_Int_t_, %struct.Vec_Int_t_, %struct.Vec_Int_t_, i32, i32, i32, i64, [4 x double], [11 x i32] }
%struct.Vec_Ptr_t_ = type { i32, i32, ptr }
%struct.Jf_Par_t_ = type { i32, i32, i32, i32, i32, i32, i32, i32, i32, i32, i32, i32, i32, i32, i32, i32, i32, i32, i32, i32, i32, i32, i32, i32, i32, i32, i32, i32, i32, i32, i32, i32, i32, i32, i32, i32, i32, i32, i32, i32, i64, i64, i64, i64, i64, i64, i64, i64, i32, float, float, float, float, ptr, ptr }

; Function Attrs: inlinehint nounwind uwtable
define internal ptr @Vec_PtrEntry(ptr noundef %0, i32 noundef %1) #2 {
  %3 = alloca ptr, align 8
  %4 = alloca i32, align 4
  store ptr %0, ptr %3, align 8, !tbaa !222
  store i32 %1, ptr %4, align 4, !tbaa !8
  %5 = load ptr, ptr %3, align 8, !tbaa !222
  %6 = getelementptr inbounds nuw %struct.Vec_Ptr_t_, ptr %5, i32 0, i32 2
  %7 = load ptr, ptr %6, align 8, !tbaa !224
  %8 = load i32, ptr %4, align 4, !tbaa !8
  %9 = sext i32 %8 to i64
  %10 = getelementptr inbounds ptr, ptr %7, i64 %9
  %11 = load ptr, ptr %10, align 8, !tbaa !229
  ret ptr %11
}

; Function Attrs: inlinehint nounwind uwtable
define internal i32 @Vec_PtrSize(ptr noundef %0) #2 {
  %2 = alloca ptr, align 8
  store ptr %0, ptr %2, align 8, !tbaa !222
  %3 = load ptr, ptr %2, align 8, !tbaa !222
  %4 = getelementptr inbounds nuw %struct.Vec_Ptr_t_, ptr %3, i32 0, i32 1
  %5 = load i32, ptr %4, align 4, !tbaa !244
  ret i32 %5
}

; Function Attrs: inlinehint nounwind uwtable
define internal void @Vec_IntFreeP(ptr noundef %0) #2 {
  %2 = alloca ptr, align 8
  store ptr %0, ptr %2, align 8, !tbaa !220
  %3 = load ptr, ptr %2, align 8, !tbaa !220
  %4 = load ptr, ptr %3, align 8, !tbaa !39
  %5 = icmp eq ptr %4, null
  br i1 %5, label %6, label %7

6:                                                ; preds = %1
  br label %32

7:                                                ; preds = %1
  %8 = load ptr, ptr %2, align 8, !tbaa !220
  %9 = load ptr, ptr %8, align 8, !tbaa !39
  %10 = getelementptr inbounds nuw %struct.Vec_Int_t_, ptr %9, i32 0, i32 2
  %11 = load ptr, ptr %10, align 8, !tbaa !73
  %12 = icmp ne ptr %11, null
  br i1 %12, label %13, label %21

13:                                               ; preds = %7
  %14 = load ptr, ptr %2, align 8, !tbaa !220
  %15 = load ptr, ptr %14, align 8, !tbaa !39
  %16 = getelementptr inbounds nuw %struct.Vec_Int_t_, ptr %15, i32 0, i32 2
  %17 = load ptr, ptr %16, align 8, !tbaa !73
  call void @free(ptr noundef %17) #14
  %18 = load ptr, ptr %2, align 8, !tbaa !220
  %19 = load ptr, ptr %18, align 8, !tbaa !39
  %20 = getelementptr inbounds nuw %struct.Vec_Int_t_, ptr %19, i32 0, i32 2
  store ptr null, ptr %20, align 8, !tbaa !73
  br label %22

21:                                               ; preds = %7
  br label %22

22:                                               ; preds = %21, %13
  %23 = load ptr, ptr %2, align 8, !tbaa !220
  %24 = load ptr, ptr %23, align 8, !tbaa !39
  %25 = icmp ne ptr %24, null
  br i1 %25, label %26, label %30

26:                                               ; preds = %22
  %27 = load ptr, ptr %2, align 8, !tbaa !220
  %28 = load ptr, ptr %27, align 8, !tbaa !39
  call void @free(ptr noundef %28) #14
  %29 = load ptr, ptr %2, align 8, !tbaa !220
  store ptr null, ptr %29, align 8, !tbaa !39
  br label %31

30:                                               ; preds = %22
  br label %31

31:                                               ; preds = %30, %26
  br label %32

32:                                               ; preds = %31, %6
  ret void
}

; Function Attrs: inlinehint nounwind uwtable
define internal void @Vec_PtrFreeData(ptr noundef %0) #2 {
  %2 = alloca ptr, align 8
  %3 = alloca ptr, align 8
  %4 = alloca i32, align 4
  %5 = alloca i32, align 4
  store ptr %0, ptr %2, align 8, !tbaa !222
  call void @llvm.lifetime.start.p0(i64 8, ptr %3) #14
  call void @llvm.lifetime.start.p0(i64 4, ptr %4) #14
  %6 = load ptr, ptr %2, align 8, !tbaa !222
  %7 = icmp eq ptr %6, null
  br i1 %7, label %8, label %9

8:                                                ; preds = %1
  store i32 1, ptr %5, align 4
  br label %39

9:                                                ; preds = %1
  store i32 0, ptr %4, align 4, !tbaa !8
  br label %10

10:                                               ; preds = %35, %9
  %11 = load i32, ptr %4, align 4, !tbaa !8
  %12 = load ptr, ptr %2, align 8, !tbaa !222
  %13 = call i32 @Vec_PtrSize(ptr noundef %12)
  %14 = icmp slt i32 %11, %13
  br i1 %14, label %15, label %19

15:                                               ; preds = %10
  %16 = load ptr, ptr %2, align 8, !tbaa !222
  %17 = load i32, ptr %4, align 4, !tbaa !8
  %18 = call ptr @Vec_PtrEntry(ptr noundef %16, i32 noundef %17)
  store ptr %18, ptr %3, align 8, !tbaa !229
  br label %19

19:                                               ; preds = %15, %10
  %20 = phi i1 [ false, %10 ], [ true, %15 ]
  br i1 %20, label %21, label %38

21:                                               ; preds = %19
  %22 = load ptr, ptr %3, align 8, !tbaa !229
  %23 = icmp ne ptr %22, inttoptr (i64 1 to ptr)
  br i1 %23, label %24, label %34

24:                                               ; preds = %21
  %25 = load ptr, ptr %3, align 8, !tbaa !229
  %26 = icmp ne ptr %25, inttoptr (i64 2 to ptr)
  br i1 %26, label %27, label %34

27:                                               ; preds = %24
  %28 = load ptr, ptr %3, align 8, !tbaa !229
  %29 = icmp ne ptr %28, null
  br i1 %29, label %30, label %32

30:                                               ; preds = %27
  %31 = load ptr, ptr %3, align 8, !tbaa !229
  call void @free(ptr noundef %31) #14
  store ptr null, ptr %3, align 8, !tbaa !229
  br label %33

32:                                               ; preds = %27
  br label %33

33:                                               ; preds = %32, %30
  br label %34

34:                                               ; preds = %33, %24, %21
  br label %35

35:                                               ; preds = %34
  %36 = load i32, ptr %4, align 4, !tbaa !8
  %37 = add nsw i32 %36, 1
  store i32 %37, ptr %4, align 4, !tbaa !8
  br label %10, !llvm.loop !230

38:                                               ; preds = %19
  store i32 0, ptr %5, align 4
  br label %39

39:                                               ; preds = %38, %8
  call void @llvm.lifetime.end.p0(i64 4, ptr %4) #14
  call void @llvm.lifetime.end.p0(i64 8, ptr %3) #14
  %40 = load i32, ptr %5, align 4
  switch i32 %40, label %42 [
    i32 0, label %41
    i32 1, label %41
  ]

41:                                               ; preds = %39, %39
  ret void

42:                                               ; preds = %39
  unreachable
}

; Function Attrs: inlinehint nounwind uwtable
define internal void @Vec_MemFree(ptr noundef %0) #2 {
  %2 = alloca ptr, align 8
  %3 = alloca i32, align 4
  store ptr %0, ptr %2, align 8, !tbaa !15
  call void @llvm.lifetime.start.p0(i64 4, ptr %3) #14
  store i32 0, ptr %3, align 4, !tbaa !8
  br label %4

4:                                                ; preds = %35, %1
  %5 = load i32, ptr %3, align 4, !tbaa !8
  %6 = load ptr, ptr %2, align 8, !tbaa !15
  %7 = getelementptr inbounds nuw %struct.Vec_Mem_t_, ptr %6, i32 0, i32 5
  %8 = load i32, ptr %7, align 4, !tbaa !25
  %9 = icmp sle i32 %5, %8
  br i1 %9, label %10, label %38

10:                                               ; preds = %4
  %11 = load ptr, ptr %2, align 8, !tbaa !15
  %12 = getelementptr inbounds nuw %struct.Vec_Mem_t_, ptr %11, i32 0, i32 6
  %13 = load ptr, ptr %12, align 8, !tbaa !26
  %14 = load i32, ptr %3, align 4, !tbaa !8
  %15 = sext i32 %14 to i64
  %16 = getelementptr inbounds ptr, ptr %13, i64 %15
  %17 = load ptr, ptr %16, align 8, !tbaa !3
  %18 = icmp ne ptr %17, null
  br i1 %18, label %19, label %33

19:                                               ; preds = %10
  %20 = load ptr, ptr %2, align 8, !tbaa !15
  %21 = getelementptr inbounds nuw %struct.Vec_Mem_t_, ptr %20, i32 0, i32 6
  %22 = load ptr, ptr %21, align 8, !tbaa !26
  %23 = load i32, ptr %3, align 4, !tbaa !8
  %24 = sext i32 %23 to i64
  %25 = getelementptr inbounds ptr, ptr %22, i64 %24
  %26 = load ptr, ptr %25, align 8, !tbaa !3
  call void @free(ptr noundef %26) #14
  %27 = load ptr, ptr %2, align 8, !tbaa !15
  %28 = getelementptr inbounds nuw %struct.Vec_Mem_t_, ptr %27, i32 0, i32 6
  %29 = load ptr, ptr %28, align 8, !tbaa !26
  %30 = load i32, ptr %3, align 4, !tbaa !8
  %31 = sext i32 %30 to i64
  %32 = getelementptr inbounds ptr, ptr %29, i64 %31
  store ptr null, ptr %32, align 8, !tbaa !3
  br label %34

33:                                               ; preds = %10
  br label %34

34:                                               ; preds = %33, %19
  br label %35

35:                                               ; preds = %34
  %36 = load i32, ptr %3, align 4, !tbaa !8
  %37 = add nsw i32 %36, 1
  store i32 %37, ptr %3, align 4, !tbaa !8
  br label %4, !llvm.loop !27

38:                                               ; preds = %4
  %39 = load ptr, ptr %2, align 8, !tbaa !15
  %40 = getelementptr inbounds nuw %struct.Vec_Mem_t_, ptr %39, i32 0, i32 6
  %41 = load ptr, ptr %40, align 8, !tbaa !26
  %42 = icmp ne ptr %41, null
  br i1 %42, label %43, label %49

43:                                               ; preds = %38
  %44 = load ptr, ptr %2, align 8, !tbaa !15
  %45 = getelementptr inbounds nuw %struct.Vec_Mem_t_, ptr %44, i32 0, i32 6
  %46 = load ptr, ptr %45, align 8, !tbaa !26
  call void @free(ptr noundef %46) #14
  %47 = load ptr, ptr %2, align 8, !tbaa !15
  %48 = getelementptr inbounds nuw %struct.Vec_Mem_t_, ptr %47, i32 0, i32 6
  store ptr null, ptr %48, align 8, !tbaa !26
  br label %50

49:                                               ; preds = %38
  br label %50

50:                                               ; preds = %49, %43
  %51 = load ptr, ptr %2, align 8, !tbaa !15
  %52 = icmp ne ptr %51, null
  br i1 %52, label %53, label %55

53:                                               ; preds = %50
  %54 = load ptr, ptr %2, align 8, !tbaa !15
  call void @free(ptr noundef %54) #14
  store ptr null, ptr %2, align 8, !tbaa !15
  br label %56

55:                                               ; preds = %50
  br label %56

56:                                               ; preds = %55, %53
  call void @llvm.lifetime.end.p0(i64 4, ptr %3) #14
  ret void
}

; Function Attrs: inlinehint nounwind uwtable
define internal void @Vec_MemHashFree(ptr noundef %0) #2 {
  %2 = alloca ptr, align 8
  store ptr %0, ptr %2, align 8, !tbaa !15
  %3 = load ptr, ptr %2, align 8, !tbaa !15
  %4 = icmp eq ptr %3, null
  br i1 %4, label %5, label %6

5:                                                ; preds = %1
  br label %11

6:                                                ; preds = %1
  %7 = load ptr, ptr %2, align 8, !tbaa !15
  %8 = getelementptr inbounds nuw %struct.Vec_Mem_t_, ptr %7, i32 0, i32 7
  call void @Vec_IntFreeP(ptr noundef %8)
  %9 = load ptr, ptr %2, align 8, !tbaa !15
  %10 = getelementptr inbounds nuw %struct.Vec_Mem_t_, ptr %9, i32 0, i32 8
  call void @Vec_IntFreeP(ptr noundef %10)
  br label %11

11:                                               ; preds = %6, %5
  ret void
}

; Function Attrs: nounwind uwtable
define void @Mf_ManFree(ptr noundef %0) #0 {
  %2 = alloca ptr, align 8
  store ptr %0, ptr %2, align 8, !tbaa !43
  %3 = load ptr, ptr %2, align 8, !tbaa !43
  %4 = getelementptr inbounds nuw %struct.Mf_Man_t_, ptr %3, i32 0, i32 2
  %5 = load ptr, ptr %4, align 8, !tbaa !68
  %6 = getelementptr inbounds nuw %struct.Jf_Par_t_, ptr %5, i32 0, i32 22
  %7 = load i32, ptr %6, align 8, !tbaa !142
  %8 = icmp ne i32 %7, 0
  br i1 %8, label %9, label %13

9:                                                ; preds = %1
  %10 = load ptr, ptr %2, align 8, !tbaa !43
  %11 = getelementptr inbounds nuw %struct.Mf_Man_t_, ptr %10, i32 0, i32 5
  %12 = load ptr, ptr %11, align 8, !tbaa !67
  call void @Vec_MemHashFree(ptr noundef %12)
  br label %13

13:                                               ; preds = %9, %1
  %14 = load ptr, ptr %2, align 8, !tbaa !43
  %15 = getelementptr inbounds nuw %struct.Mf_Man_t_, ptr %14, i32 0, i32 2
  %16 = load ptr, ptr %15, align 8, !tbaa !68
  %17 = getelementptr inbounds nuw %struct.Jf_Par_t_, ptr %16, i32 0, i32 22
  %18 = load i32, ptr %17, align 8, !tbaa !142
  %19 = icmp ne i32 %18, 0
  br i1 %19, label %20, label %24

20:                                               ; preds = %13
  %21 = load ptr, ptr %2, align 8, !tbaa !43
  %22 = getelementptr inbounds nuw %struct.Mf_Man_t_, ptr %21, i32 0, i32 5
  %23 = load ptr, ptr %22, align 8, !tbaa !67
  call void @Vec_MemFree(ptr noundef %23)
  br label %24

24:                                               ; preds = %20, %13
  %25 = load ptr, ptr %2, align 8, !tbaa !43
  %26 = getelementptr inbounds nuw %struct.Mf_Man_t_, ptr %25, i32 0, i32 4
  call void @Vec_PtrFreeData(ptr noundef %26)
  %27 = load ptr, ptr %2, align 8, !tbaa !43
  %28 = getelementptr inbounds nuw %struct.Mf_Man_t_, ptr %27, i32 0, i32 6
  %29 = getelementptr inbounds nuw %struct.Vec_Int_t_, ptr %28, i32 0, i32 2
  %30 = load ptr, ptr %29, align 8, !tbaa !225
  %31 = icmp ne ptr %30, null
  br i1 %31, label %32, label %40

32:                                               ; preds = %24
  %33 = load ptr, ptr %2, align 8, !tbaa !43
  %34 = getelementptr inbounds nuw %struct.Mf_Man_t_, ptr %33, i32 0, i32 6
  %35 = getelementptr inbounds nuw %struct.Vec_Int_t_, ptr %34, i32 0, i32 2
  %36 = load ptr, ptr %35, align 8, !tbaa !225
  call void @free(ptr noundef %36) #14
  %37 = load ptr, ptr %2, align 8, !tbaa !43
  %38 = getelementptr inbounds nuw %struct.Mf_Man_t_, ptr %37, i32 0, i32 6
  %39 = getelementptr inbounds nuw %struct.Vec_Int_t_, ptr %38, i32 0, i32 2
  store ptr null, ptr %39, align 8, !tbaa !225
  br label %41

40:                                               ; preds = %24
  br label %41

41:                                               ; preds = %40, %32
  %42 = load ptr, ptr %2, align 8, !tbaa !43
  %43 = getelementptr inbounds nuw %struct.Mf_Man_t_, ptr %42, i32 0, i32 7
  %44 = getelementptr inbounds nuw %struct.Vec_Int_t_, ptr %43, i32 0, i32 2
  %45 = load ptr, ptr %44, align 8, !tbaa !226
  %46 = icmp ne ptr %45, null
  br i1 %46, label %47, label %55

47:                                               ; preds = %41
  %48 = load ptr, ptr %2, align 8, !tbaa !43
  %49 = getelementptr inbounds nuw %struct.Mf_Man_t_, ptr %48, i32 0, i32 7
  %50 = getelementptr inbounds nuw %struct.Vec_Int_t_, ptr %49, i32 0, i32 2
  %51 = load ptr, ptr %50, align 8, !tbaa !226
  call void @free(ptr noundef %51) #14
  %52 = load ptr, ptr %2, align 8, !tbaa !43
  %53 = getelementptr inbounds nuw %struct.Mf_Man_t_, ptr %52, i32 0, i32 7
  %54 = getelementptr inbounds nuw %struct.Vec_Int_t_, ptr %53, i32 0, i32 2
  store ptr null, ptr %54, align 8, !tbaa !226
  br label %56

55:                                               ; preds = %41
  br label %56

56:                                               ; preds = %55, %47
  %57 = load ptr, ptr %2, align 8, !tbaa !43
  %58 = getelementptr inbounds nuw %struct.Mf_Man_t_, ptr %57, i32 0, i32 4
  %59 = getelementptr inbounds nuw %struct.Vec_Ptr_t_, ptr %58, i32 0, i32 2
  %60 = load ptr, ptr %59, align 8, !tbaa !227
  %61 = icmp ne ptr %60, null
  br i1 %61, label %62, label %70

62:                                               ; preds = %56
  %63 = load ptr, ptr %2, align 8, !tbaa !43
  %64 = getelementptr inbounds nuw %struct.Mf_Man_t_, ptr %63, i32 0, i32 4
  %65 = getelementptr inbounds nuw %struct.Vec_Ptr_t_, ptr %64, i32 0, i32 2
  %66 = load ptr, ptr %65, align 8, !tbaa !227
  call void @free(ptr noundef %66) #14
  %67 = load ptr, ptr %2, align 8, !tbaa !43
  %68 = getelementptr inbounds nuw %struct.Mf_Man_t_, ptr %67, i32 0, i32 4
  %69 = getelementptr inbounds nuw %struct.Vec_Ptr_t_, ptr %68, i32 0, i32 2
  store ptr null, ptr %69, align 8, !tbaa !227
  br label %71

70:                                               ; preds = %56
  br label %71

71:                                               ; preds = %70, %62
  %72 = load ptr, ptr %2, align 8, !tbaa !43
  %73 = getelementptr inbounds nuw %struct.Mf_Man_t_, ptr %72, i32 0, i32 8
  %74 = getelementptr inbounds nuw %struct.Vec_Int_t_, ptr %73, i32 0, i32 2
  %75 = load ptr, ptr %74, align 8, !tbaa !228
  %76 = icmp ne ptr %75, null
  br i1 %76, label %77, label %85

77:                                               ; preds = %71
  %78 = load ptr, ptr %2, align 8, !tbaa !43
  %79 = getelementptr inbounds nuw %struct.Mf_Man_t_, ptr %78, i32 0, i32 8
  %80 = getelementptr inbounds nuw %struct.Vec_Int_t_, ptr %79, i32 0, i32 2
  %81 = load ptr, ptr %80, align 8, !tbaa !228
  call void @free(ptr noundef %81) #14
  %82 = load ptr, ptr %2, align 8, !tbaa !43
  %83 = getelementptr inbounds nuw %struct.Mf_Man_t_, ptr %82, i32 0, i32 8
  %84 = getelementptr inbounds nuw %struct.Vec_Int_t_, ptr %83, i32 0, i32 2
  store ptr null, ptr %84, align 8, !tbaa !228
  br label %86

85:                                               ; preds = %71
  br label %86

86:                                               ; preds = %85, %77
  %87 = load ptr, ptr %2, align 8, !tbaa !43
  %88 = getelementptr inbounds nuw %struct.Mf_Man_t_, ptr %87, i32 0, i32 3
  %89 = load ptr, ptr %88, align 8, !tbaa !152
  %90 = icmp ne ptr %89, null
  br i1 %90, label %91, label %97

91:                                               ; preds = %86
  %92 = load ptr, ptr %2, align 8, !tbaa !43
  %93 = getelementptr inbounds nuw %struct.Mf_Man_t_, ptr %92, i32 0, i32 3
  %94 = load ptr, ptr %93, align 8, !tbaa !152
  call void @free(ptr noundef %94) #14
  %95 = load ptr, ptr %2, align 8, !tbaa !43
  %96 = getelementptr inbounds nuw %struct.Mf_Man_t_, ptr %95, i32 0, i32 3
  store ptr null, ptr %96, align 8, !tbaa !152
  br label %98

97:                                               ; preds = %86
  br label %98

98:                                               ; preds = %97, %91
  %99 = load ptr, ptr %2, align 8, !tbaa !43
  %100 = icmp ne ptr %99, null
  br i1 %100, label %101, label %103

101:                                              ; preds = %98
  %102 = load ptr, ptr %2, align 8, !tbaa !43
  call void @free(ptr noundef %102) #14
  store ptr null, ptr %2, align 8, !tbaa !43
  br label %104

103:                                              ; preds = %98
  br label %104

104:                                              ; preds = %103, %101
  ret void
}