; Function Attrs: nounwind uwtable
define void @Mf_ManFree(ptr noundef captures(none) %0) local_unnamed_addr #0 {
  %2 = getelementptr inbounds nuw i8, ptr %0, i64 16
  %3 = load ptr, ptr %2, align 8, !tbaa !86
  %4 = getelementptr inbounds nuw i8, ptr %3, i64 88
  %5 = load i32, ptr %4, align 8, !tbaa !162
  %.not = icmp eq i32 %5, 0
  br i1 %.not, label %Vec_MemHashFree.exit, label %6

6:                                                ; preds = %1
  %7 = getelementptr inbounds nuw i8, ptr %0, i64 48
  %8 = load ptr, ptr %7, align 8, !tbaa !85
  %9 = icmp eq ptr %8, null
  br i1 %9, label %Vec_MemHashFree.exit, label %10

10:                                               ; preds = %6
  %11 = getelementptr inbounds nuw i8, ptr %8, i64 32
  %12 = load ptr, ptr %11, align 8, !tbaa !39
  %13 = icmp eq ptr %12, null
  br i1 %13, label %Vec_IntFreeP.exit.i, label %14

14:                                               ; preds = %10
  %15 = getelementptr inbounds nuw i8, ptr %12, i64 8
  %16 = load ptr, ptr %15, align 8, !tbaa !26
  %.not.i.i = icmp eq ptr %16, null
  br i1 %.not.i.i, label %19, label %.thread.i.i

.thread.i.i:                                      ; preds = %14
  tail call void @free(ptr noundef nonnull %16) #29
  %17 = load ptr, ptr %11, align 8, !tbaa !39
  %18 = getelementptr inbounds nuw i8, ptr %17, i64 8
  store ptr null, ptr %18, align 8, !tbaa !26
  br label %19

19:                                               ; preds = %.thread.i.i, %14
  %20 = phi ptr [ %17, %.thread.i.i ], [ %12, %14 ]
  tail call void @free(ptr noundef nonnull %20) #29
  store ptr null, ptr %11, align 8, !tbaa !39
  br label %Vec_IntFreeP.exit.i

Vec_IntFreeP.exit.i:                              ; preds = %19, %10
  %21 = getelementptr inbounds nuw i8, ptr %8, i64 40
  %22 = load ptr, ptr %21, align 8, !tbaa !39
  %23 = icmp eq ptr %22, null
  br i1 %23, label %Vec_MemHashFree.exit, label %24

24:                                               ; preds = %Vec_IntFreeP.exit.i
  %25 = getelementptr inbounds nuw i8, ptr %22, i64 8
  %26 = load ptr, ptr %25, align 8, !tbaa !26
  %.not.i3.i = icmp eq ptr %26, null
  br i1 %.not.i3.i, label %29, label %.thread.i4.i

.thread.i4.i:                                     ; preds = %24
  tail call void @free(ptr noundef nonnull %26) #29
  %27 = load ptr, ptr %21, align 8, !tbaa !39
  %28 = getelementptr inbounds nuw i8, ptr %27, i64 8
  store ptr null, ptr %28, align 8, !tbaa !26
  br label %29

29:                                               ; preds = %.thread.i4.i, %24
  %30 = phi ptr [ %27, %.thread.i4.i ], [ %22, %24 ]
  tail call void @free(ptr noundef nonnull %30) #29
  store ptr null, ptr %21, align 8, !tbaa !39
  br label %Vec_MemHashFree.exit

Vec_MemHashFree.exit:                             ; preds = %29, %Vec_IntFreeP.exit.i, %6, %1
  %31 = load ptr, ptr %2, align 8, !tbaa !86
  %32 = getelementptr inbounds nuw i8, ptr %31, i64 88
  %33 = load i32, ptr %32, align 8, !tbaa !162
  %.not27 = icmp eq i32 %33, 0
  br i1 %.not27, label %51, label %34

34:                                               ; preds = %Vec_MemHashFree.exit
  %35 = getelementptr inbounds nuw i8, ptr %0, i64 48
  %36 = load ptr, ptr %35, align 8, !tbaa !85
  %37 = getelementptr inbounds nuw i8, ptr %36, i64 20
  %38 = load i32, ptr %37, align 4, !tbaa !20
  %.not19.i = icmp slt i32 %38, 0
  %.phi.trans.insert.i = getelementptr inbounds nuw i8, ptr %36, i64 24
  %.pre23.i = load ptr, ptr %.phi.trans.insert.i, align 8, !tbaa !31
  br i1 %.not19.i, label %._crit_edge.i, label %.lr.ph.i

.lr.ph.i:                                         ; preds = %34, %46
  %39 = phi i32 [ %47, %46 ], [ %38, %34 ]
  %40 = phi ptr [ %48, %46 ], [ %.pre23.i, %34 ]
  %indvars.iv.i = phi i64 [ %indvars.iv.next.i, %46 ], [ 0, %34 ]
  %41 = getelementptr inbounds nuw ptr, ptr %40, i64 %indvars.iv.i
  %42 = load ptr, ptr %41, align 8, !tbaa !32
  %.not18.i = icmp eq ptr %42, null
  br i1 %.not18.i, label %46, label %43

43:                                               ; preds = %.lr.ph.i
  tail call void @free(ptr noundef nonnull %42) #29
  %44 = load ptr, ptr %.phi.trans.insert.i, align 8, !tbaa !31
  %45 = getelementptr inbounds nuw ptr, ptr %44, i64 %indvars.iv.i
  store ptr null, ptr %45, align 8, !tbaa !32
  %.pre22.i = load i32, ptr %37, align 4, !tbaa !20
  br label %46

46:                                               ; preds = %43, %.lr.ph.i
  %47 = phi i32 [ %.pre22.i, %43 ], [ %39, %.lr.ph.i ]
  %48 = phi ptr [ %44, %43 ], [ %40, %.lr.ph.i ]
  %indvars.iv.next.i = add nuw nsw i64 %indvars.iv.i, 1
  %49 = sext i32 %47 to i64
  %.not.not.i = icmp slt i64 %indvars.iv.i, %49
  br i1 %.not.not.i, label %.lr.ph.i, label %._crit_edge.thread.i, !llvm.loop !40

._crit_edge.i:                                    ; preds = %34
  %.not16.i = icmp eq ptr %.pre23.i, null
  br i1 %.not16.i, label %Vec_MemFree.exit, label %._crit_edge.thread.i

._crit_edge.thread.i:                             ; preds = %46, %._crit_edge.i
  %50 = phi ptr [ %.pre23.i, %._crit_edge.i ], [ %48, %46 ]
  tail call void @free(ptr noundef nonnull %50) #29
  br label %Vec_MemFree.exit

Vec_MemFree.exit:                                 ; preds = %._crit_edge.i, %._crit_edge.thread.i
  tail call void @free(ptr noundef nonnull %36) #29
  br label %51

51:                                               ; preds = %Vec_MemFree.exit, %Vec_MemHashFree.exit
  %52 = getelementptr i8, ptr %0, i64 36
  %.val1415.i = load i32, ptr %52, align 4, !tbaa !197
  %53 = icmp sgt i32 %.val1415.i, 0
  br i1 %53, label %.lr.ph.i34, label %Vec_PtrFreeData.exit

.lr.ph.i34:                                       ; preds = %51
  %54 = getelementptr i8, ptr %0, i64 40
  br label %55

55:                                               ; preds = %59, %.lr.ph.i34
  %.val1418.i = phi i32 [ %.val1415.i, %.lr.ph.i34 ], [ %.val14.i, %59 ]
  %indvars.iv.i35 = phi i64 [ 0, %.lr.ph.i34 ], [ %indvars.iv.next.i36, %59 ]
  %.val.i = load ptr, ptr %54, align 8, !tbaa !80
  %56 = getelementptr inbounds nuw ptr, ptr %.val.i, i64 %indvars.iv.i35
  %57 = load ptr, ptr %56, align 8, !tbaa !83
  %switch.i = icmp ult ptr %57, inttoptr (i64 3 to ptr)
  br i1 %switch.i, label %59, label %58

58:                                               ; preds = %55
  tail call void @free(ptr noundef %57) #29
  %.val14.pre.i = load i32, ptr %52, align 4, !tbaa !197
  br label %59

59:                                               ; preds = %58, %55
  %.val14.i = phi i32 [ %.val1418.i, %55 ], [ %.val14.pre.i, %58 ]
  %indvars.iv.next.i36 = add nuw nsw i64 %indvars.iv.i35, 1
  %60 = sext i32 %.val14.i to i64
  %61 = icmp slt i64 %indvars.iv.next.i36, %60
  br i1 %61, label %55, label %Vec_PtrFreeData.exit, !llvm.loop !253

Vec_PtrFreeData.exit:                             ; preds = %59, %51
  %62 = getelementptr inbounds nuw i8, ptr %0, i64 64
  %63 = load ptr, ptr %62, align 8, !tbaa !254
  %.not28 = icmp eq ptr %63, null
  br i1 %.not28, label %65, label %64

64:                                               ; preds = %Vec_PtrFreeData.exit
  tail call void @free(ptr noundef nonnull %63) #29
  store ptr null, ptr %62, align 8, !tbaa !254
  br label %65

65:                                               ; preds = %Vec_PtrFreeData.exit, %64
  %66 = getelementptr inbounds nuw i8, ptr %0, i64 80
  %67 = load ptr, ptr %66, align 8, !tbaa !255
  %.not29 = icmp eq ptr %67, null
  br i1 %.not29, label %69, label %68

68:                                               ; preds = %65
  tail call void @free(ptr noundef nonnull %67) #29
  store ptr null, ptr %66, align 8, !tbaa !255
  br label %69

69:                                               ; preds = %65, %68
  %70 = getelementptr inbounds nuw i8, ptr %0, i64 40
  %71 = load ptr, ptr %70, align 8, !tbaa !256
  %.not30 = icmp eq ptr %71, null
  br i1 %.not30, label %73, label %72

72:                                               ; preds = %69
  tail call void @free(ptr noundef nonnull %71) #29
  store ptr null, ptr %70, align 8, !tbaa !256
  br label %73

73:                                               ; preds = %69, %72
  %74 = getelementptr inbounds nuw i8, ptr %0, i64 96
  %75 = load ptr, ptr %74, align 8, !tbaa !257
  %.not31 = icmp eq ptr %75, null
  br i1 %.not31, label %77, label %76

76:                                               ; preds = %73
  tail call void @free(ptr noundef nonnull %75) #29
  store ptr null, ptr %74, align 8, !tbaa !257
  br label %77

77:                                               ; preds = %73, %76
  %78 = getelementptr inbounds nuw i8, ptr %0, i64 24
  %79 = load ptr, ptr %78, align 8, !tbaa !79
  %.not32 = icmp eq ptr %79, null
  br i1 %.not32, label %81, label %80

80:                                               ; preds = %77
  tail call void @free(ptr noundef nonnull %79) #29
  br label %81

81:                                               ; preds = %77, %80
  tail call void @free(ptr noundef nonnull %0) #29
  ret void
}